target datalayout = "e-m:e-p270:32:32-p271:32:32-p272:64:64-i64:64-i128:128-f80:128-n8:16:32:64-S128"
target triple = "x86_64-pc-linux-gnu"

; Function Attrs: nounwind uwtable
define i32 @stbiw__crc32(ptr noundef %0, i32 noundef %1) #0 {
  %3 = alloca ptr, align 8
  %4 = alloca i32, align 4
  %5 = alloca [256 x i32], align 16
  %6 = alloca i32, align 4
  %7 = alloca i32, align 4
  store ptr %0, ptr %3, align 8, !tbaa !12
  store i32 %1, ptr %4, align 4, !tbaa !3
  call void @llvm.lifetime.start.p0(i64 1024, ptr %5) #11
  call void @llvm.memcpy.p0.p0.i64(ptr align 16 %5, ptr align 16 @__const.stbiw__crc32.crc_table, i64 1024, i1 false)
  call void @llvm.lifetime.start.p0(i64 4, ptr %6) #11
  store i32 -1, ptr %6, align 4, !tbaa !3
  call void @llvm.lifetime.start.p0(i64 4, ptr %7) #11
  store i32 0, ptr %7, align 4, !tbaa !3
  br label %8

8:                                                ; preds = %28, %2
  %9 = load i32, ptr %7, align 4, !tbaa !3
  %10 = load i32, ptr %4, align 4, !tbaa !3
  %11 = icmp slt i32 %9, %10
  br i1 %11, label %12, label %31

12:                                               ; preds = %8
  %13 = load i32, ptr %6, align 4, !tbaa !3
  %14 = lshr i32 %13, 8
  %15 = load ptr, ptr %3, align 8, !tbaa !12
  %16 = load i32, ptr %7, align 4, !tbaa !3
  %17 = sext i32 %16 to i64
  %18 = getelementptr inbounds i8, ptr %15, i64 %17
  %19 = load i8, ptr %18, align 1, !tbaa !18
  %20 = zext i8 %19 to i32
  %21 = load i32, ptr %6, align 4, !tbaa !3
  %22 = and i32 %21, 255
  %23 = xor i32 %20, %22
  %24 = zext i32 %23 to i64
  %25 = getelementptr inbounds nuw [256 x i32], ptr %5, i64 0, i64 %24
  %26 = load i32, ptr %25, align 4, !tbaa !3
  %27 = xor i32 %14, %26
  store i32 %27, ptr %6, align 4, !tbaa !3
  br label %28

28:                                               ; preds = %12
  %29 = load i32, ptr %7, align 4, !tbaa !3
  %30 = add nsw i32 %29, 1
  store i32 %30, ptr %7, align 4, !tbaa !3
  br label %8, !llvm.loop !66

31:                                               ; preds = %8
  %32 = load i32, ptr %6, align 4, !tbaa !3
  %33 = xor i32 %32, -1
  call void @llvm.lifetime.end.p0(i64 4, ptr %7) #11
  call void @llvm.lifetime.end.p0(i64 4, ptr %6) #11
  call void @llvm.lifetime.end.p0(i64 1024, ptr %5) #11
  ret i32 %33
}