; Function Attrs: nofree norecurse nosync nounwind memory(argmem: read) uwtable
define i32 @stbiw__crc32(ptr noundef readonly captures(none) %0, i32 noundef %1) local_unnamed_addr #16 {
  %3 = icmp sgt i32 %1, 0
  br i1 %3, label %.lr.ph.preheader, label %._crit_edge

.lr.ph.preheader:                                 ; preds = %2
  %wide.trip.count = zext nneg i32 %1 to i64
  br label %.lr.ph

.lr.ph:                                           ; preds = %.lr.ph.preheader, %.lr.ph
  %indvars.iv = phi i64 [ 0, %.lr.ph.preheader ], [ %indvars.iv.next, %.lr.ph ]
  %.078 = phi i32 [ -1, %.lr.ph.preheader ], [ %13, %.lr.ph ]
  %4 = lshr i32 %.078, 8
  %5 = getelementptr inbounds nuw i8, ptr %0, i64 %indvars.iv
  %6 = load i8, ptr %5, align 1, !tbaa !11
  %7 = zext i8 %6 to i32
  %8 = and i32 %.078, 255
  %9 = xor i32 %8, %7
  %10 = zext nneg i32 %9 to i64
  %11 = getelementptr inbounds nuw [256 x i32], ptr @__const.stbiw__crc32.crc_table, i64 0, i64 %10
  %12 = load i32, ptr %11, align 4, !tbaa !3
  %13 = xor i32 %12, %4
  %indvars.iv.next = add nuw nsw i64 %indvars.iv, 1
  %exitcond.not = icmp eq i64 %indvars.iv.next, %wide.trip.count
  br i1 %exitcond.not, label %._crit_edge.loopexit, label %.lr.ph, !llvm.loop !55

._crit_edge.loopexit:                             ; preds = %.lr.ph
  %14 = xor i32 %13, -1
  br label %._crit_edge

._crit_edge:                                      ; preds = %._crit_edge.loopexit, %2
  %.07.lcssa = phi i32 [ 0, %2 ], [ %14, %._crit_edge.loopexit ]
  ret i32 %.07.lcssa
}